target datalayout = "e-m:e-p270:32:32-p271:32:32-p272:64:64-i64:64-i128:128-f80:128-n8:16:32:64-S128"
target triple = "x86_64-pc-linux-gnu"

%struct.except_id_t = type { i64, i64 }
%struct._packet_info = type { ptr, ptr, i32, i32, %struct.nstime_t, %struct.nstime_t, %struct.nstime_t, i8, ptr, ptr, ptr, ptr, %struct._address, %struct._address, %struct._address, %struct._address, %struct._address, %struct._address, i32, ptr, i8, [3 x i8], %struct.anon, i32, i32, i32, i32, ptr, i8, ptr, ptr, i16, i16, i32, i32, i16, i32, i32, ptr, ptr, ptr, i8, i8, i16, i16, i16, i32, i16, i16, ptr, ptr, ptr, ptr, ptr, i32, i32 }
%struct.nstime_t = type { i64, i32 }
%struct._address = type { i32, i32, ptr, ptr }
%struct.anon = type { i8, [3 x i8] }
%struct.fp_info = type { i32, i32, i8, i16, i8, i8, i32, i8, i32, [64 x i32], [64 x i32], i32, [16 x i8], [16 x i32], [16 x i32], i8, i32, i32, i32, i16, i16, i32, ptr, ptr, i32, i32, [8 x i8], i32, i32, i32, i8 }
%struct.except_stacknode = type { ptr, i32, %union.anon }
%union.anon = type { ptr }
%struct.except_catch = type { ptr, i64, %struct.except_t, [1 x %struct.__jmp_buf_tag] }
%struct.except_t = type { %struct.except_id_t, ptr, ptr }
%struct.__jmp_buf_tag = type { [8 x i64], i32, %struct.__sigset_t }
%struct.__sigset_t = type { [16 x i64] }
%struct.rrc_info = type { [64 x i32], [64 x i16] }

@rrc_handle = internal global ptr null, align 8
@ip_handle = internal global ptr null, align 8
@bmc_handle = internal global ptr null, align 8
@proto_fp = external global i32, align 4
@proto_rrc = external global i32, align 4
@rlc_call_subdissector.catch_spec = internal constant [1 x %struct.except_id_t] [%struct.except_id_t { i64 1, i64 0 }], align 16
@.str.191 = private unnamed_addr constant [2 x i8] c" \00", align 1

; Function Attrs: null_pointer_is_valid sspstrong uwtable
define internal void @rlc_call_subdissector(i32 noundef %0, ptr noundef %1, ptr noundef %2, ptr noundef %3) #0 {
  %5 = alloca i32, align 4
  %6 = alloca ptr, align 8
  %7 = alloca ptr, align 8
  %8 = alloca ptr, align 8
  %9 = alloca i8, align 1
  %10 = alloca ptr, align 8
  %11 = alloca i32, align 4
  %12 = alloca i32, align 4
  %13 = alloca ptr, align 8
  %14 = alloca ptr, align 8
  %15 = alloca ptr, align 8
  %16 = alloca i32, align 4
  %17 = alloca %struct.except_stacknode, align 8
  %18 = alloca %struct.except_catch, align 8
  store i32 %0, ptr %5, align 4
  store ptr %1, ptr %6, align 8
  store ptr %2, ptr %7, align 8
  store ptr %3, ptr %8, align 8
  call void @llvm.lifetime.start.p0(i64 1, ptr %9) #18
  store i8 1, ptr %9, align 1
  call void @llvm.lifetime.start.p0(i64 8, ptr %10) #18
  store volatile ptr null, ptr %10, align 8
  call void @llvm.lifetime.start.p0(i64 4, ptr %11) #18
  %19 = load i32, ptr %5, align 4
  switch i32 %19, label %30 [
    i32 2, label %20
    i32 3, label %21
    i32 7, label %22
    i32 4, label %24
    i32 5, label %25
    i32 0, label %26
    i32 1, label %27
    i32 6, label %28
  ]

20:                                               ; preds = %4
  store i32 2, ptr %11, align 4
  br label %31

21:                                               ; preds = %4
  store i32 3, ptr %11, align 4
  br label %31

22:                                               ; preds = %4
  store i8 0, ptr %9, align 1
  store i32 0, ptr %11, align 4
  %23 = load ptr, ptr @bmc_handle, align 8
  store volatile ptr %23, ptr %10, align 8
  br label %31

24:                                               ; preds = %4
  store i32 4, ptr %11, align 4
  br label %31

25:                                               ; preds = %4
  store i32 5, ptr %11, align 4
  br label %31

26:                                               ; preds = %4
  store i32 1, ptr %11, align 4
  br label %31

27:                                               ; preds = %4
  store i32 6, ptr %11, align 4
  br label %31

28:                                               ; preds = %4
  store i8 0, ptr %9, align 1
  store i32 0, ptr %11, align 4
  %29 = load ptr, ptr @ip_handle, align 8
  store volatile ptr %29, ptr %10, align 8
  br label %31

30:                                               ; preds = %4
  store i32 1, ptr %12, align 4
  br label %163

31:                                               ; preds = %28, %27, %26, %25, %24, %22, %21, %20
  %32 = load i8, ptr %9, align 1, !range !8, !noundef !9
  %33 = trunc i8 %32 to i1
  br i1 %33, label %34, label %65

34:                                               ; preds = %31
  %35 = load i32, ptr %11, align 4
  %36 = icmp ne i32 %35, 0
  br i1 %36, label %37, label %65

37:                                               ; preds = %34
  call void @llvm.lifetime.start.p0(i64 8, ptr %13) #18
  call void @llvm.lifetime.start.p0(i64 8, ptr %14) #18
  %38 = call ptr @wmem_file_scope()
  %39 = load ptr, ptr %7, align 8
  %40 = load i32, ptr @proto_fp, align 4
  %41 = call ptr @p_get_proto_data(ptr noundef %38, ptr noundef %39, i32 noundef %40, i32 noundef 0)
  store ptr %41, ptr %14, align 8
  %42 = call ptr @wmem_file_scope()
  %43 = load ptr, ptr %7, align 8
  %44 = load i32, ptr @proto_rrc, align 4
  %45 = call ptr @p_get_proto_data(ptr noundef %42, ptr noundef %43, i32 noundef %44, i32 noundef 0)
  store ptr %45, ptr %13, align 8
  %46 = load ptr, ptr %13, align 8
  %47 = icmp ne ptr %46, null
  br i1 %47, label %55, label %48

48:                                               ; preds = %37
  %49 = call ptr @wmem_file_scope()
  %50 = call noalias ptr @wmem_alloc0(ptr noundef %49, i64 noundef 384) #19
  store ptr %50, ptr %13, align 8
  %51 = call ptr @wmem_file_scope()
  %52 = load ptr, ptr %7, align 8
  %53 = load i32, ptr @proto_rrc, align 4
  %54 = load ptr, ptr %13, align 8
  call void @p_add_proto_data(ptr noundef %51, ptr noundef %52, i32 noundef %53, i32 noundef 0, ptr noundef %54)
  br label %55

55:                                               ; preds = %48, %37
  %56 = load i32, ptr %11, align 4
  %57 = load ptr, ptr %13, align 8
  %58 = getelementptr inbounds nuw %struct.rrc_info, ptr %57, i32 0, i32 0
  %59 = load ptr, ptr %14, align 8
  %60 = getelementptr inbounds nuw %struct.fp_info, ptr %59, i32 0, i32 16
  %61 = load i32, ptr %60, align 4
  %62 = sext i32 %61 to i64
  %63 = getelementptr [64 x i32], ptr %58, i64 0, i64 %62
  store i32 %56, ptr %63, align 4
  %64 = load ptr, ptr @rrc_handle, align 8
  store volatile ptr %64, ptr %10, align 8
  call void @llvm.lifetime.end.p0(i64 8, ptr %14) #18
  call void @llvm.lifetime.end.p0(i64 8, ptr %13) #18
  br label %65

65:                                               ; preds = %55, %34, %31
  %66 = load volatile ptr, ptr %10, align 8
  %67 = icmp ne ptr %66, null
  br i1 %67, label %68, label %162

68:                                               ; preds = %65
  call void @llvm.lifetime.start.p0(i64 8, ptr %15) #18
  call void @llvm.lifetime.start.p0(i64 4, ptr %16) #18
  store volatile i32 0, ptr %16, align 4
  call void @llvm.lifetime.start.p0(i64 24, ptr %17) #18
  call void @llvm.lifetime.start.p0(i64 248, ptr %18) #18
  call void @except_setup_try(ptr noundef %17, ptr noundef %18, ptr noundef @rlc_call_subdissector.catch_spec, i64 noundef 1)
  %69 = getelementptr inbounds nuw %struct.except_catch, ptr %18, i32 0, i32 3
  %70 = getelementptr inbounds [1 x %struct.__jmp_buf_tag], ptr %69, i64 0, i64 0
  %71 = call i32 @_setjmp(ptr noundef %70) #23
  %72 = icmp ne i32 %71, 0
  br i1 %72, label %73, label %75

73:                                               ; preds = %68
  %74 = getelementptr inbounds nuw %struct.except_catch, ptr %18, i32 0, i32 2
  store volatile ptr %74, ptr %15, align 8
  br label %76

75:                                               ; preds = %68
  store volatile ptr null, ptr %15, align 8
  br label %76

76:                                               ; preds = %75, %73
  %77 = load volatile i32, ptr %16, align 4
  %78 = and i32 %77, 1
  %79 = icmp ne i32 %78, 0
  br i1 %79, label %80, label %83

80:                                               ; preds = %76
  %81 = load volatile i32, ptr %16, align 4
  %82 = or i32 %81, 2
  store volatile i32 %82, ptr %16, align 4
  br label %83

83:                                               ; preds = %80, %76
  %84 = load volatile i32, ptr %16, align 4
  %85 = and i32 %84, -2
  store volatile i32 %85, ptr %16, align 4
  %86 = load volatile i32, ptr %16, align 4
  %87 = icmp eq i32 %86, 0
  br i1 %87, label %88, label %97

88:                                               ; preds = %83
  %89 = load volatile ptr, ptr %15, align 8
  %90 = icmp eq ptr %89, null
  br i1 %90, label %91, label %97

91:                                               ; preds = %88
  %92 = load volatile ptr, ptr %10, align 8
  %93 = load ptr, ptr %6, align 8
  %94 = load ptr, ptr %7, align 8
  %95 = load ptr, ptr %8, align 8
  %96 = call i32 @call_dissector(ptr noundef %92, ptr noundef %93, ptr noundef %94, ptr noundef %95)
  br label %97

97:                                               ; preds = %91, %88, %83
  %98 = load volatile i32, ptr %16, align 4
  %99 = icmp eq i32 %98, 0
  br i1 %99, label %100, label %142

100:                                              ; preds = %97
  %101 = load volatile ptr, ptr %15, align 8
  %102 = icmp ne ptr %101, null
  br i1 %102, label %103, label %142

103:                                              ; preds = %100
  %104 = load volatile ptr, ptr %15, align 8
  %105 = getelementptr inbounds nuw %struct.except_t, ptr %104, i32 0, i32 0
  %106 = getelementptr inbounds nuw %struct.except_id_t, ptr %105, i32 0, i32 1
  %107 = load volatile i64, ptr %106, align 8
  %108 = icmp eq i64 %107, 3
  br i1 %108, label %127, label %109

109:                                              ; preds = %103
  %110 = load volatile ptr, ptr %15, align 8
  %111 = getelementptr inbounds nuw %struct.except_t, ptr %110, i32 0, i32 0
  %112 = getelementptr inbounds nuw %struct.except_id_t, ptr %111, i32 0, i32 1
  %113 = load volatile i64, ptr %112, align 8
  %114 = icmp eq i64 %113, 2
  br i1 %114, label %127, label %115

115:                                              ; preds = %109
  %116 = load volatile ptr, ptr %15, align 8
  %117 = getelementptr inbounds nuw %struct.except_t, ptr %116, i32 0, i32 0
  %118 = getelementptr inbounds nuw %struct.except_id_t, ptr %117, i32 0, i32 1
  %119 = load volatile i64, ptr %118, align 8
  %120 = icmp eq i64 %119, 7
  br i1 %120, label %127, label %121

121:                                              ; preds = %115
  %122 = load volatile ptr, ptr %15, align 8
  %123 = getelementptr inbounds nuw %struct.except_t, ptr %122, i32 0, i32 0
  %124 = getelementptr inbounds nuw %struct.except_id_t, ptr %123, i32 0, i32 1
  %125 = load volatile i64, ptr %124, align 8
  %126 = icmp eq i64 %125, 9
  br i1 %126, label %127, label %142

127:                                              ; preds = %121, %115, %109, %103
  %128 = load volatile i32, ptr %16, align 4
  %129 = or i32 %128, 1
  store volatile i32 %129, ptr %16, align 4
  %130 = icmp ne i32 %129, 0
  br i1 %130, label %131, label %142

131:                                              ; preds = %127
  %132 = load ptr, ptr %6, align 8
  %133 = load ptr, ptr %7, align 8
  %134 = load ptr, ptr %8, align 8
  %135 = load volatile ptr, ptr %15, align 8
  %136 = getelementptr inbounds nuw %struct.except_t, ptr %135, i32 0, i32 0
  %137 = getelementptr inbounds nuw %struct.except_id_t, ptr %136, i32 0, i32 1
  %138 = load volatile i64, ptr %137, align 8
  %139 = load volatile ptr, ptr %15, align 8
  %140 = getelementptr inbounds nuw %struct.except_t, ptr %139, i32 0, i32 1
  %141 = load volatile ptr, ptr %140, align 8
  call void @show_exception(ptr noundef %132, ptr noundef %133, ptr noundef %134, i64 noundef %138, ptr noundef %141)
  br label %142

142:                                              ; preds = %131, %127, %121, %100, %97
  %143 = load volatile i32, ptr %16, align 4
  %144 = and i32 %143, 1
  %145 = icmp ne i32 %144, 0
  br i1 %145, label %151, label %146

146:                                              ; preds = %142
  %147 = load volatile ptr, ptr %15, align 8
  %148 = icmp ne ptr %147, null
  br i1 %148, label %149, label %151

149:                                              ; preds = %146
  %150 = load volatile ptr, ptr %15, align 8
  call void @except_rethrow(ptr noundef %150) #22
  unreachable

151:                                              ; preds = %146, %142
  %152 = getelementptr inbounds nuw %struct.except_catch, ptr %18, i32 0, i32 2
  %153 = getelementptr inbounds nuw %struct.except_t, ptr %152, i32 0, i32 2
  %154 = load volatile ptr, ptr %153, align 8
  call void @except_free(ptr noundef %154)
  %155 = call ptr @except_pop()
  call void @llvm.lifetime.end.p0(i64 248, ptr %18) #18
  call void @llvm.lifetime.end.p0(i64 24, ptr %17) #18
  call void @llvm.lifetime.end.p0(i64 4, ptr %16) #18
  call void @llvm.lifetime.end.p0(i64 8, ptr %15) #18
  %156 = load ptr, ptr %7, align 8
  %157 = getelementptr inbounds nuw %struct._packet_info, ptr %156, i32 0, i32 1
  %158 = load ptr, ptr %157, align 8
  call void @col_append_str(ptr noundef %158, i32 noundef 25, ptr noundef @.str.191)
  %159 = load ptr, ptr %7, align 8
  %160 = getelementptr inbounds nuw %struct._packet_info, ptr %159, i32 0, i32 1
  %161 = load ptr, ptr %160, align 8
  call void @col_set_fence(ptr noundef %161, i32 noundef 25)
  br label %162

162:                                              ; preds = %151, %65
  store i32 0, ptr %12, align 4
  br label %163

163:                                              ; preds = %162, %30
  call void @llvm.lifetime.end.p0(i64 4, ptr %11) #18
  call void @llvm.lifetime.end.p0(i64 8, ptr %10) #18
  call void @llvm.lifetime.end.p0(i64 1, ptr %9) #18
  %164 = load i32, ptr %12, align 4
  switch i32 %164, label %166 [
    i32 0, label %165
    i32 1, label %165
  ]

165:                                              ; preds = %163, %163
  ret void

166:                                              ; preds = %163
  unreachable
}