; Function Attrs: null_pointer_is_valid sspstrong uwtable
define internal fastcc void @rlc_call_subdissector(i32 noundef range(i32 0, 9) %0, ptr noundef %1, ptr noundef %2, ptr noundef %3) unnamed_addr #0 {
  %5 = alloca ptr, align 8
  %6 = alloca ptr, align 8
  %7 = alloca i32, align 4
  %8 = alloca %struct.except_stacknode, align 8
  %9 = alloca %struct.except_catch, align 8
  call void @llvm.lifetime.start.p0(i64 8, ptr nonnull %5)
  store volatile ptr null, ptr %5, align 8
  switch i32 %0, label %82 [
    i32 2, label %13
    i32 3, label %13
    i32 7, label %30
    i32 4, label %13
    i32 5, label %13
    i32 0, label %10
    i32 1, label %11
    i32 6, label %12
  ]

10:                                               ; preds = %4
  br label %13

11:                                               ; preds = %4
  br label %13

12:                                               ; preds = %4
  br label %30

13:                                               ; preds = %4, %4, %4, %11, %10, %4
  %.039.ph = phi i32 [ %0, %4 ], [ 1, %10 ], [ 6, %11 ], [ %0, %4 ], [ %0, %4 ], [ %0, %4 ]
  %14 = call ptr @wmem_file_scope()
  %15 = load i32, ptr @proto_fp, align 4
  %16 = call ptr @p_get_proto_data(ptr noundef %14, ptr noundef %2, i32 noundef %15, i32 noundef 0)
  %17 = call ptr @wmem_file_scope()
  %18 = load i32, ptr @proto_rrc, align 4
  %19 = call ptr @p_get_proto_data(ptr noundef %17, ptr noundef %2, i32 noundef %18, i32 noundef 0)
  %.not = icmp eq ptr %19, null
  br i1 %.not, label %20, label %25

20:                                               ; preds = %13
  %21 = call ptr @wmem_file_scope()
  %22 = call noalias dereferenceable_or_null(384) ptr @wmem_alloc0(ptr noundef %21, i64 noundef 384) #17
  %23 = call ptr @wmem_file_scope()
  %24 = load i32, ptr @proto_rrc, align 4
  call void @p_add_proto_data(ptr noundef %23, ptr noundef %2, i32 noundef %24, i32 noundef 0, ptr noundef %22)
  br label %25

25:                                               ; preds = %20, %13
  %.038 = phi ptr [ %19, %13 ], [ %22, %20 ]
  %26 = getelementptr inbounds nuw i8, ptr %16, i64 692
  %27 = load i32, ptr %26, align 4
  %28 = sext i32 %27 to i64
  %29 = getelementptr [64 x i32], ptr %.038, i64 0, i64 %28
  store i32 %.039.ph, ptr %29, align 4
  br label %30

30:                                               ; preds = %4, %12, %25
  %bmc_handle.sink = phi ptr [ @ip_handle, %12 ], [ @rrc_handle, %25 ], [ @bmc_handle, %4 ]
  %31 = load ptr, ptr %bmc_handle.sink, align 8
  store volatile ptr %31, ptr %5, align 8
  %.0..0..0..0.23 = load volatile ptr, ptr %5, align 8
  %.not41 = icmp eq ptr %.0..0..0..0.23, null
  br i1 %.not41, label %82, label %32

32:                                               ; preds = %30
  call void @llvm.lifetime.start.p0(i64 8, ptr nonnull %6)
  call void @llvm.lifetime.start.p0(i64 4, ptr nonnull %7)
  store volatile i32 0, ptr %7, align 4
  call void @llvm.lifetime.start.p0(i64 24, ptr nonnull %8) #16
  call void @llvm.lifetime.start.p0(i64 248, ptr nonnull %9) #16
  call void @except_setup_try(ptr noundef nonnull %8, ptr noundef nonnull %9, ptr noundef nonnull @rlc_call_subdissector.catch_spec, i64 noundef 1)
  %33 = getelementptr inbounds nuw i8, ptr %9, i64 48
  %34 = call i32 @_setjmp(ptr noundef nonnull %33) #20
  %.not42 = icmp eq i32 %34, 0
  %35 = getelementptr inbounds nuw i8, ptr %9, i64 16
  %.sink = select i1 %.not42, ptr null, ptr %35
  store volatile ptr %.sink, ptr %6, align 8
  %.0..0..0..0. = load volatile i32, ptr %7, align 4
  %36 = and i32 %.0..0..0..0., 1
  %.not43 = icmp eq i32 %36, 0
  br i1 %.not43, label %39, label %37

37:                                               ; preds = %32
  %.0..0..0..0.2 = load volatile i32, ptr %7, align 4
  %38 = or i32 %.0..0..0..0.2, 2
  store volatile i32 %38, ptr %7, align 4
  br label %39

39:                                               ; preds = %37, %32
  %.0..0..0..0.3 = load volatile i32, ptr %7, align 4
  %40 = and i32 %.0..0..0..0.3, -2
  store volatile i32 %40, ptr %7, align 4
  %.0..0..0..0.4 = load volatile i32, ptr %7, align 4
  %41 = icmp eq i32 %.0..0..0..0.4, 0
  br i1 %41, label %42, label %46

42:                                               ; preds = %39
  %.0..0..0..0.8 = load volatile ptr, ptr %6, align 8
  %43 = icmp eq ptr %.0..0..0..0.8, null
  br i1 %43, label %44, label %46

44:                                               ; preds = %42
  %.0..0..0..0.24 = load volatile ptr, ptr %5, align 8
  %45 = call i32 @call_dissector(ptr noundef %.0..0..0..0.24, ptr noundef %1, ptr noundef %2, ptr noundef %3)
  br label %46

46:                                               ; preds = %44, %42, %39
  %.0..0..0..0.5 = load volatile i32, ptr %7, align 4
  %47 = icmp eq i32 %.0..0..0..0.5, 0
  br i1 %47, label %48, label %71

48:                                               ; preds = %46
  %.0..0..0..0.9 = load volatile ptr, ptr %6, align 8
  %.not44 = icmp eq ptr %.0..0..0..0.9, null
  br i1 %.not44, label %71, label %49

49:                                               ; preds = %48
  %.0..0..0..0.10 = load volatile ptr, ptr %6, align 8
  %50 = getelementptr inbounds nuw i8, ptr %.0..0..0..0.10, i64 8
  %51 = load volatile i64, ptr %50, align 8
  %52 = icmp eq i64 %51, 3
  br i1 %52, label %65, label %53

53:                                               ; preds = %49
  %.0..0..0..0.11 = load volatile ptr, ptr %6, align 8
  %54 = getelementptr inbounds nuw i8, ptr %.0..0..0..0.11, i64 8
  %55 = load volatile i64, ptr %54, align 8
  %56 = icmp eq i64 %55, 2
  br i1 %56, label %65, label %57

57:                                               ; preds = %53
  %.0..0..0..0.12 = load volatile ptr, ptr %6, align 8
  %58 = getelementptr inbounds nuw i8, ptr %.0..0..0..0.12, i64 8
  %59 = load volatile i64, ptr %58, align 8
  %60 = icmp eq i64 %59, 7
  br i1 %60, label %65, label %61

61:                                               ; preds = %57
  %.0..0..0..0.13 = load volatile ptr, ptr %6, align 8
  %62 = getelementptr inbounds nuw i8, ptr %.0..0..0..0.13, i64 8
  %63 = load volatile i64, ptr %62, align 8
  %64 = icmp eq i64 %63, 9
  br i1 %64, label %65, label %71

65:                                               ; preds = %61, %57, %53, %49
  %.0..0..0..0.6 = load volatile i32, ptr %7, align 4
  %66 = or i32 %.0..0..0..0.6, 1
  store volatile i32 %66, ptr %7, align 4
  %.0..0..0..0.14 = load volatile ptr, ptr %6, align 8
  %67 = getelementptr inbounds nuw i8, ptr %.0..0..0..0.14, i64 8
  %68 = load volatile i64, ptr %67, align 8
  %.0..0..0..0.15 = load volatile ptr, ptr %6, align 8
  %69 = getelementptr inbounds nuw i8, ptr %.0..0..0..0.15, i64 16
  %70 = load volatile ptr, ptr %69, align 8
  call void @show_exception(ptr noundef %1, ptr noundef %2, ptr noundef %3, i64 noundef %68, ptr noundef %70)
  br label %71

71:                                               ; preds = %65, %61, %48, %46
  %.0..0..0..0.7 = load volatile i32, ptr %7, align 4
  %72 = and i32 %.0..0..0..0.7, 1
  %.not45 = icmp eq i32 %72, 0
  br i1 %.not45, label %73, label %75

73:                                               ; preds = %71
  %.0..0..0..0.16 = load volatile ptr, ptr %6, align 8
  %.not46 = icmp eq ptr %.0..0..0..0.16, null
  br i1 %.not46, label %75, label %74

74:                                               ; preds = %73
  %.0..0..0..0.17 = load volatile ptr, ptr %6, align 8
  call void @except_rethrow(ptr noundef %.0..0..0..0.17) #19
  unreachable

75:                                               ; preds = %73, %71
  %76 = getelementptr inbounds nuw i8, ptr %9, i64 40
  %77 = load volatile ptr, ptr %76, align 8
  call void @except_free(ptr noundef %77)
  %78 = call ptr @except_pop()
  call void @llvm.lifetime.end.p0(i64 248, ptr nonnull %9) #16
  call void @llvm.lifetime.end.p0(i64 24, ptr nonnull %8) #16
  call void @llvm.lifetime.end.p0(i64 4, ptr nonnull %7)
  call void @llvm.lifetime.end.p0(i64 8, ptr nonnull %6)
  %79 = getelementptr inbounds nuw i8, ptr %2, i64 8
  %80 = load ptr, ptr %79, align 8
  call void @col_append_str(ptr noundef %80, i32 noundef 25, ptr noundef nonnull @.str.191)
  %81 = load ptr, ptr %79, align 8
  call void @col_set_fence(ptr noundef %81, i32 noundef 25)
  br label %82

82:                                               ; preds = %30, %75, %4
  call void @llvm.lifetime.end.p0(i64 8, ptr nonnull %5)
  ret void
}